target datalayout = "e-m:e-p270:32:32-p271:32:32-p272:64:64-i64:64-i128:128-f80:128-n8:16:32:64-S128"
target triple = "x86_64-pc-linux-gnu"

%struct.AVFilterContext = type { ptr, ptr, ptr, ptr, ptr, i32, ptr, ptr, i32, ptr, ptr, i32, i32, ptr, ptr, ptr, ptr, i32, ptr, i32, i32 }
%struct.ShearContext = type { ptr, float, float, i32, [4 x i8], ptr, i32, i32, i32, %struct.FFDrawContext, %struct.FFDrawColor, i32, i32, [4 x i32], [4 x i32], [2 x ptr] }
%struct.FFDrawContext = type { ptr, i32, i32, [4 x i32], [4 x i8], [4 x i8], i8, i8, i32, i32, i32, [3 x [3 x double]] }
%struct.FFDrawColor = type { [4 x i8], [4 x %union.anon.2] }
%union.anon.2 = type { [4 x i32] }
%struct.AVFilterLink = type { ptr, ptr, ptr, ptr, i32, i32, i32, i32, %struct.AVRational, i32, i32, i32, %struct.AVChannelLayout, %struct.AVRational, ptr, i32, %struct.AVFilterFormatsConfig, %struct.AVFilterFormatsConfig }
%struct.AVChannelLayout = type { i32, i32, %union.anon.1, ptr }
%union.anon.1 = type { i64 }
%struct.AVRational = type { i32, i32 }
%struct.AVFilterFormatsConfig = type { ptr, ptr, ptr, ptr, ptr }
%struct.AVPixFmtDescriptor = type { ptr, i8, i8, i8, i64, [4 x %struct.AVComponentDescriptor], ptr }
%struct.AVComponentDescriptor = type { i32, i32, i32, i32, i32 }

@.str.3 = private unnamed_addr constant [36 x i8] c"Failed to initialize FFDrawContext\0A\00", align 1

; Function Attrs: nounwind uwtable
define internal i32 @config_output(ptr noundef %0) #1 {
  %2 = alloca i32, align 4
  %3 = alloca ptr, align 8
  %4 = alloca ptr, align 8
  %5 = alloca ptr, align 8
  %6 = alloca ptr, align 8
  %7 = alloca i32, align 4
  %8 = alloca i32, align 4
  store ptr %0, ptr %3, align 8, !tbaa !33
  call void @llvm.lifetime.start.p0(i64 8, ptr %4) #8
  %9 = load ptr, ptr %3, align 8, !tbaa !33
  %10 = getelementptr inbounds nuw %struct.AVFilterLink, ptr %9, i32 0, i32 0
  %11 = load ptr, ptr %10, align 8, !tbaa !53
  store ptr %11, ptr %4, align 8, !tbaa !4
  call void @llvm.lifetime.start.p0(i64 8, ptr %5) #8
  %12 = load ptr, ptr %4, align 8, !tbaa !4
  %13 = getelementptr inbounds nuw %struct.AVFilterContext, ptr %12, i32 0, i32 9
  %14 = load ptr, ptr %13, align 8, !tbaa !9
  store ptr %14, ptr %5, align 8, !tbaa !22
  call void @llvm.lifetime.start.p0(i64 8, ptr %6) #8
  %15 = load ptr, ptr %3, align 8, !tbaa !33
  %16 = getelementptr inbounds nuw %struct.AVFilterLink, ptr %15, i32 0, i32 5
  %17 = load i32, ptr %16, align 4, !tbaa !54
  %18 = call ptr @av_pix_fmt_desc_get(i32 noundef %17)
  store ptr %18, ptr %6, align 8, !tbaa !55
  call void @llvm.lifetime.start.p0(i64 4, ptr %7) #8
  %19 = load ptr, ptr %3, align 8, !tbaa !33
  %20 = getelementptr inbounds nuw %struct.AVFilterLink, ptr %19, i32 0, i32 5
  %21 = load i32, ptr %20, align 4, !tbaa !54
  %22 = call i32 @av_pix_fmt_count_planes(i32 noundef %21)
  %23 = load ptr, ptr %5, align 8, !tbaa !22
  %24 = getelementptr inbounds nuw %struct.ShearContext, ptr %23, i32 0, i32 7
  store i32 %22, ptr %24, align 4, !tbaa !56
  %25 = load ptr, ptr %6, align 8, !tbaa !55
  %26 = getelementptr inbounds nuw %struct.AVPixFmtDescriptor, ptr %25, i32 0, i32 5
  %27 = getelementptr inbounds [4 x %struct.AVComponentDescriptor], ptr %26, i64 0, i64 0
  %28 = getelementptr inbounds nuw %struct.AVComponentDescriptor, ptr %27, i32 0, i32 4
  %29 = load i32, ptr %28, align 8, !tbaa !57
  %30 = load ptr, ptr %5, align 8, !tbaa !22
  %31 = getelementptr inbounds nuw %struct.ShearContext, ptr %30, i32 0, i32 8
  store i32 %29, ptr %31, align 8, !tbaa !59
  %32 = load ptr, ptr %6, align 8, !tbaa !55
  %33 = getelementptr inbounds nuw %struct.AVPixFmtDescriptor, ptr %32, i32 0, i32 2
  %34 = load i8, ptr %33, align 1, !tbaa !60
  %35 = zext i8 %34 to i32
  %36 = shl i32 1, %35
  %37 = load ptr, ptr %5, align 8, !tbaa !22
  %38 = getelementptr inbounds nuw %struct.ShearContext, ptr %37, i32 0, i32 11
  store i32 %36, ptr %38, align 4, !tbaa !63
  %39 = load ptr, ptr %6, align 8, !tbaa !55
  %40 = getelementptr inbounds nuw %struct.AVPixFmtDescriptor, ptr %39, i32 0, i32 3
  %41 = load i8, ptr %40, align 2, !tbaa !64
  %42 = zext i8 %41 to i32
  %43 = shl i32 1, %42
  %44 = load ptr, ptr %5, align 8, !tbaa !22
  %45 = getelementptr inbounds nuw %struct.ShearContext, ptr %44, i32 0, i32 12
  store i32 %43, ptr %45, align 8, !tbaa !65
  %46 = load ptr, ptr %6, align 8, !tbaa !55
  %47 = getelementptr inbounds nuw %struct.AVPixFmtDescriptor, ptr %46, i32 0, i32 2
  %48 = load i8, ptr %47, align 1, !tbaa !60
  %49 = call i1 @llvm.is.constant.i8(i8 %48)
  br i1 %49, label %65, label %50

50:                                               ; preds = %1
  %51 = load ptr, ptr %4, align 8, !tbaa !4
  %52 = getelementptr inbounds nuw %struct.AVFilterContext, ptr %51, i32 0, i32 4
  %53 = load ptr, ptr %52, align 8, !tbaa !66
  %54 = getelementptr inbounds ptr, ptr %53, i64 0
  %55 = load ptr, ptr %54, align 8, !tbaa !33
  %56 = getelementptr inbounds nuw %struct.AVFilterLink, ptr %55, i32 0, i32 6
  %57 = load i32, ptr %56, align 8, !tbaa !46
  %58 = sub nsw i32 0, %57
  %59 = load ptr, ptr %6, align 8, !tbaa !55
  %60 = getelementptr inbounds nuw %struct.AVPixFmtDescriptor, ptr %59, i32 0, i32 2
  %61 = load i8, ptr %60, align 1, !tbaa !60
  %62 = zext i8 %61 to i32
  %63 = ashr i32 %58, %62
  %64 = sub nsw i32 0, %63
  br label %85

65:                                               ; preds = %1
  %66 = load ptr, ptr %4, align 8, !tbaa !4
  %67 = getelementptr inbounds nuw %struct.AVFilterContext, ptr %66, i32 0, i32 4
  %68 = load ptr, ptr %67, align 8, !tbaa !66
  %69 = getelementptr inbounds ptr, ptr %68, i64 0
  %70 = load ptr, ptr %69, align 8, !tbaa !33
  %71 = getelementptr inbounds nuw %struct.AVFilterLink, ptr %70, i32 0, i32 6
  %72 = load i32, ptr %71, align 8, !tbaa !46
  %73 = load ptr, ptr %6, align 8, !tbaa !55
  %74 = getelementptr inbounds nuw %struct.AVPixFmtDescriptor, ptr %73, i32 0, i32 2
  %75 = load i8, ptr %74, align 1, !tbaa !60
  %76 = zext i8 %75 to i32
  %77 = shl i32 1, %76
  %78 = add nsw i32 %72, %77
  %79 = sub nsw i32 %78, 1
  %80 = load ptr, ptr %6, align 8, !tbaa !55
  %81 = getelementptr inbounds nuw %struct.AVPixFmtDescriptor, ptr %80, i32 0, i32 2
  %82 = load i8, ptr %81, align 1, !tbaa !60
  %83 = zext i8 %82 to i32
  %84 = ashr i32 %79, %83
  br label %85

85:                                               ; preds = %65, %50
  %86 = phi i32 [ %64, %50 ], [ %84, %65 ]
  %87 = load ptr, ptr %5, align 8, !tbaa !22
  %88 = getelementptr inbounds nuw %struct.ShearContext, ptr %87, i32 0, i32 13
  %89 = getelementptr inbounds [4 x i32], ptr %88, i64 0, i64 2
  store i32 %86, ptr %89, align 4, !tbaa !32
  %90 = load ptr, ptr %5, align 8, !tbaa !22
  %91 = getelementptr inbounds nuw %struct.ShearContext, ptr %90, i32 0, i32 13
  %92 = getelementptr inbounds [4 x i32], ptr %91, i64 0, i64 1
  store i32 %86, ptr %92, align 4, !tbaa !32
  %93 = load ptr, ptr %4, align 8, !tbaa !4
  %94 = getelementptr inbounds nuw %struct.AVFilterContext, ptr %93, i32 0, i32 4
  %95 = load ptr, ptr %94, align 8, !tbaa !66
  %96 = getelementptr inbounds ptr, ptr %95, i64 0
  %97 = load ptr, ptr %96, align 8, !tbaa !33
  %98 = getelementptr inbounds nuw %struct.AVFilterLink, ptr %97, i32 0, i32 6
  %99 = load i32, ptr %98, align 8, !tbaa !46
  %100 = load ptr, ptr %5, align 8, !tbaa !22
  %101 = getelementptr inbounds nuw %struct.ShearContext, ptr %100, i32 0, i32 13
  %102 = getelementptr inbounds [4 x i32], ptr %101, i64 0, i64 3
  store i32 %99, ptr %102, align 4, !tbaa !32
  %103 = load ptr, ptr %5, align 8, !tbaa !22
  %104 = getelementptr inbounds nuw %struct.ShearContext, ptr %103, i32 0, i32 13
  %105 = getelementptr inbounds [4 x i32], ptr %104, i64 0, i64 0
  store i32 %99, ptr %105, align 4, !tbaa !32
  %106 = load ptr, ptr %6, align 8, !tbaa !55
  %107 = getelementptr inbounds nuw %struct.AVPixFmtDescriptor, ptr %106, i32 0, i32 3
  %108 = load i8, ptr %107, align 2, !tbaa !64
  %109 = call i1 @llvm.is.constant.i8(i8 %108)
  br i1 %109, label %125, label %110

110:                                              ; preds = %85
  %111 = load ptr, ptr %4, align 8, !tbaa !4
  %112 = getelementptr inbounds nuw %struct.AVFilterContext, ptr %111, i32 0, i32 4
  %113 = load ptr, ptr %112, align 8, !tbaa !66
  %114 = getelementptr inbounds ptr, ptr %113, i64 0
  %115 = load ptr, ptr %114, align 8, !tbaa !33
  %116 = getelementptr inbounds nuw %struct.AVFilterLink, ptr %115, i32 0, i32 7
  %117 = load i32, ptr %116, align 4, !tbaa !47
  %118 = sub nsw i32 0, %117
  %119 = load ptr, ptr %6, align 8, !tbaa !55
  %120 = getelementptr inbounds nuw %struct.AVPixFmtDescriptor, ptr %119, i32 0, i32 3
  %121 = load i8, ptr %120, align 2, !tbaa !64
  %122 = zext i8 %121 to i32
  %123 = ashr i32 %118, %122
  %124 = sub nsw i32 0, %123
  br label %145

125:                                              ; preds = %85
  %126 = load ptr, ptr %4, align 8, !tbaa !4
  %127 = getelementptr inbounds nuw %struct.AVFilterContext, ptr %126, i32 0, i32 4
  %128 = load ptr, ptr %127, align 8, !tbaa !66
  %129 = getelementptr inbounds ptr, ptr %128, i64 0
  %130 = load ptr, ptr %129, align 8, !tbaa !33
  %131 = getelementptr inbounds nuw %struct.AVFilterLink, ptr %130, i32 0, i32 7
  %132 = load i32, ptr %131, align 4, !tbaa !47
  %133 = load ptr, ptr %6, align 8, !tbaa !55
  %134 = getelementptr inbounds nuw %struct.AVPixFmtDescriptor, ptr %133, i32 0, i32 3
  %135 = load i8, ptr %134, align 2, !tbaa !64
  %136 = zext i8 %135 to i32
  %137 = shl i32 1, %136
  %138 = add nsw i32 %132, %137
  %139 = sub nsw i32 %138, 1
  %140 = load ptr, ptr %6, align 8, !tbaa !55
  %141 = getelementptr inbounds nuw %struct.AVPixFmtDescriptor, ptr %140, i32 0, i32 3
  %142 = load i8, ptr %141, align 2, !tbaa !64
  %143 = zext i8 %142 to i32
  %144 = ashr i32 %139, %143
  br label %145

145:                                              ; preds = %125, %110
  %146 = phi i32 [ %124, %110 ], [ %144, %125 ]
  %147 = load ptr, ptr %5, align 8, !tbaa !22
  %148 = getelementptr inbounds nuw %struct.ShearContext, ptr %147, i32 0, i32 14
  %149 = getelementptr inbounds [4 x i32], ptr %148, i64 0, i64 2
  store i32 %146, ptr %149, align 4, !tbaa !32
  %150 = load ptr, ptr %5, align 8, !tbaa !22
  %151 = getelementptr inbounds nuw %struct.ShearContext, ptr %150, i32 0, i32 14
  %152 = getelementptr inbounds [4 x i32], ptr %151, i64 0, i64 1
  store i32 %146, ptr %152, align 4, !tbaa !32
  %153 = load ptr, ptr %4, align 8, !tbaa !4
  %154 = getelementptr inbounds nuw %struct.AVFilterContext, ptr %153, i32 0, i32 4
  %155 = load ptr, ptr %154, align 8, !tbaa !66
  %156 = getelementptr inbounds ptr, ptr %155, i64 0
  %157 = load ptr, ptr %156, align 8, !tbaa !33
  %158 = getelementptr inbounds nuw %struct.AVFilterLink, ptr %157, i32 0, i32 7
  %159 = load i32, ptr %158, align 4, !tbaa !47
  %160 = load ptr, ptr %5, align 8, !tbaa !22
  %161 = getelementptr inbounds nuw %struct.ShearContext, ptr %160, i32 0, i32 14
  %162 = getelementptr inbounds [4 x i32], ptr %161, i64 0, i64 3
  store i32 %159, ptr %162, align 4, !tbaa !32
  %163 = load ptr, ptr %5, align 8, !tbaa !22
  %164 = getelementptr inbounds nuw %struct.ShearContext, ptr %163, i32 0, i32 14
  %165 = getelementptr inbounds [4 x i32], ptr %164, i64 0, i64 0
  store i32 %159, ptr %165, align 4, !tbaa !32
  %166 = load ptr, ptr %5, align 8, !tbaa !22
  %167 = getelementptr inbounds nuw %struct.ShearContext, ptr %166, i32 0, i32 9
  %168 = load ptr, ptr %3, align 8, !tbaa !33
  %169 = getelementptr inbounds nuw %struct.AVFilterLink, ptr %168, i32 0, i32 5
  %170 = load i32, ptr %169, align 4, !tbaa !54
  %171 = load ptr, ptr %3, align 8, !tbaa !33
  %172 = getelementptr inbounds nuw %struct.AVFilterLink, ptr %171, i32 0, i32 9
  %173 = load i32, ptr %172, align 8, !tbaa !67
  %174 = load ptr, ptr %3, align 8, !tbaa !33
  %175 = getelementptr inbounds nuw %struct.AVFilterLink, ptr %174, i32 0, i32 10
  %176 = load i32, ptr %175, align 4, !tbaa !68
  %177 = call i32 @ff_draw_init2(ptr noundef %167, i32 noundef %170, i32 noundef %173, i32 noundef %176, i32 noundef 0)
  store i32 %177, ptr %7, align 4, !tbaa !32
  %178 = load i32, ptr %7, align 4, !tbaa !32
  %179 = icmp slt i32 %178, 0
  br i1 %179, label %180, label %183

180:                                              ; preds = %145
  %181 = load ptr, ptr %4, align 8, !tbaa !4
  call void (ptr, i32, ptr, ...) @av_log(ptr noundef %181, i32 noundef 16, ptr noundef @.str.3)
  %182 = load i32, ptr %7, align 4, !tbaa !32
  store i32 %182, ptr %2, align 4
  store i32 1, ptr %8, align 4
  br label %207

183:                                              ; preds = %145
  %184 = load ptr, ptr %5, align 8, !tbaa !22
  %185 = getelementptr inbounds nuw %struct.ShearContext, ptr %184, i32 0, i32 9
  %186 = load ptr, ptr %5, align 8, !tbaa !22
  %187 = getelementptr inbounds nuw %struct.ShearContext, ptr %186, i32 0, i32 10
  %188 = load ptr, ptr %5, align 8, !tbaa !22
  %189 = getelementptr inbounds nuw %struct.ShearContext, ptr %188, i32 0, i32 4
  %190 = getelementptr inbounds [4 x i8], ptr %189, i64 0, i64 0
  call void @ff_draw_color(ptr noundef %185, ptr noundef %187, ptr noundef %190)
  %191 = load ptr, ptr %5, align 8, !tbaa !22
  %192 = getelementptr inbounds nuw %struct.ShearContext, ptr %191, i32 0, i32 8
  %193 = load i32, ptr %192, align 8, !tbaa !59
  %194 = icmp sle i32 %193, 8
  %195 = select i1 %194, ptr @filter_slice_nn8, ptr @filter_slice_nn16
  %196 = load ptr, ptr %5, align 8, !tbaa !22
  %197 = getelementptr inbounds nuw %struct.ShearContext, ptr %196, i32 0, i32 15
  %198 = getelementptr inbounds [2 x ptr], ptr %197, i64 0, i64 0
  store ptr %195, ptr %198, align 8, !tbaa !52
  %199 = load ptr, ptr %5, align 8, !tbaa !22
  %200 = getelementptr inbounds nuw %struct.ShearContext, ptr %199, i32 0, i32 8
  %201 = load i32, ptr %200, align 8, !tbaa !59
  %202 = icmp sle i32 %201, 8
  %203 = select i1 %202, ptr @filter_slice_bl8, ptr @filter_slice_bl16
  %204 = load ptr, ptr %5, align 8, !tbaa !22
  %205 = getelementptr inbounds nuw %struct.ShearContext, ptr %204, i32 0, i32 15
  %206 = getelementptr inbounds [2 x ptr], ptr %205, i64 0, i64 1
  store ptr %203, ptr %206, align 8, !tbaa !52
  store i32 0, ptr %2, align 4
  store i32 1, ptr %8, align 4
  br label %207

207:                                              ; preds = %183, %180
  call void @llvm.lifetime.end.p0(i64 4, ptr %7) #8
  call void @llvm.lifetime.end.p0(i64 8, ptr %6) #8
  call void @llvm.lifetime.end.p0(i64 8, ptr %5) #8
  call void @llvm.lifetime.end.p0(i64 8, ptr %4) #8
  %208 = load i32, ptr %2, align 4
  ret i32 %208
}