; Function Attrs: nounwind uwtable
define internal range(i32 -2147483648, 1) i32 @config_output(ptr noundef readonly captures(none) %0) #1 {
  %2 = load ptr, ptr %0, align 8, !tbaa !49
  %3 = getelementptr inbounds nuw i8, ptr %2, i64 72
  %4 = load ptr, ptr %3, align 8, !tbaa !4
  %5 = getelementptr inbounds nuw i8, ptr %0, i64 36
  %6 = load i32, ptr %5, align 4, !tbaa !50
  %7 = tail call ptr @av_pix_fmt_desc_get(i32 noundef %6) #10
  %8 = load i32, ptr %5, align 4, !tbaa !50
  %9 = tail call i32 @av_pix_fmt_count_planes(i32 noundef %8) #10
  %10 = getelementptr inbounds nuw i8, ptr %4, i64 36
  store i32 %9, ptr %10, align 4, !tbaa !51
  %11 = getelementptr inbounds nuw i8, ptr %7, i64 40
  %12 = load i32, ptr %11, align 8, !tbaa !52
  %13 = getelementptr inbounds nuw i8, ptr %4, i64 40
  store i32 %12, ptr %13, align 8, !tbaa !54
  %14 = getelementptr inbounds nuw i8, ptr %7, i64 9
  %15 = load i8, ptr %14, align 1, !tbaa !55
  %16 = zext i8 %15 to i32
  %17 = shl nuw i32 1, %16
  %18 = getelementptr inbounds nuw i8, ptr %4, i64 244
  store i32 %17, ptr %18, align 4, !tbaa !58
  %19 = getelementptr inbounds nuw i8, ptr %7, i64 10
  %20 = load i8, ptr %19, align 2, !tbaa !59
  %21 = zext i8 %20 to i32
  %22 = shl nuw i32 1, %21
  %23 = getelementptr inbounds nuw i8, ptr %4, i64 248
  store i32 %22, ptr %23, align 8, !tbaa !60
  %24 = getelementptr inbounds nuw i8, ptr %2, i64 32
  %25 = load ptr, ptr %24, align 8, !tbaa !61
  %26 = load ptr, ptr %25, align 8, !tbaa !39
  %27 = getelementptr inbounds nuw i8, ptr %26, i64 40
  %28 = load i32, ptr %27, align 8, !tbaa !41
  %29 = sub nsw i32 0, %28
  %30 = ashr i32 %29, %16
  %31 = sub nsw i32 0, %30
  %32 = getelementptr inbounds nuw i8, ptr %4, i64 252
  %33 = getelementptr inbounds nuw i8, ptr %4, i64 260
  store i32 %31, ptr %33, align 4, !tbaa !48
  %34 = getelementptr inbounds nuw i8, ptr %4, i64 256
  store i32 %31, ptr %34, align 4, !tbaa !48
  %35 = getelementptr inbounds nuw i8, ptr %26, i64 40
  %36 = load i32, ptr %35, align 8, !tbaa !41
  %37 = getelementptr inbounds nuw i8, ptr %4, i64 264
  store i32 %36, ptr %37, align 4, !tbaa !48
  store i32 %36, ptr %32, align 4, !tbaa !48
  %38 = getelementptr inbounds nuw i8, ptr %26, i64 44
  %39 = load i32, ptr %38, align 4, !tbaa !42
  %40 = sub nsw i32 0, %39
  %41 = ashr i32 %40, %21
  %42 = sub nsw i32 0, %41
  %43 = getelementptr inbounds nuw i8, ptr %4, i64 268
  %44 = getelementptr inbounds nuw i8, ptr %4, i64 276
  store i32 %42, ptr %44, align 4, !tbaa !48
  %45 = getelementptr inbounds nuw i8, ptr %4, i64 272
  store i32 %42, ptr %45, align 4, !tbaa !48
  %46 = getelementptr inbounds nuw i8, ptr %26, i64 44
  %47 = load i32, ptr %46, align 4, !tbaa !42
  %48 = getelementptr inbounds nuw i8, ptr %4, i64 280
  store i32 %47, ptr %48, align 4, !tbaa !48
  store i32 %47, ptr %43, align 4, !tbaa !48
  %49 = getelementptr inbounds nuw i8, ptr %4, i64 48
  %50 = load i32, ptr %5, align 4, !tbaa !50
  %51 = getelementptr inbounds nuw i8, ptr %0, i64 56
  %52 = load i32, ptr %51, align 8, !tbaa !62
  %53 = getelementptr inbounds nuw i8, ptr %0, i64 60
  %54 = load i32, ptr %53, align 4, !tbaa !63
  %55 = tail call i32 @ff_draw_init2(ptr noundef nonnull %49, i32 noundef %50, i32 noundef %52, i32 noundef %54, i32 noundef 0) #10
  %56 = icmp slt i32 %55, 0
  br i1 %56, label %57, label %58

57:                                               ; preds = %1
  tail call void (ptr, i32, ptr, ...) @av_log(ptr noundef nonnull %2, i32 noundef 16, ptr noundef nonnull @.str.3) #10
  br label %67

58:                                               ; preds = %1
  %59 = getelementptr inbounds nuw i8, ptr %4, i64 176
  %60 = getelementptr inbounds nuw i8, ptr %4, i64 20
  tail call void @ff_draw_color(ptr noundef nonnull %49, ptr noundef nonnull %59, ptr noundef nonnull %60) #10
  %61 = load i32, ptr %13, align 8, !tbaa !54
  %62 = icmp slt i32 %61, 9
  %63 = select i1 %62, ptr @filter_slice_nn8, ptr @filter_slice_nn16
  %64 = getelementptr inbounds nuw i8, ptr %4, i64 288
  store ptr %63, ptr %64, align 8, !tbaa !47
  %65 = select i1 %62, ptr @filter_slice_bl8, ptr @filter_slice_bl16
  %66 = getelementptr inbounds nuw i8, ptr %4, i64 296
  store ptr %65, ptr %66, align 8, !tbaa !47
  br label %67

67:                                               ; preds = %58, %57
  %.0 = phi i32 [ %55, %57 ], [ 0, %58 ]
  ret i32 %.0
}